; ModuleID = 'source-C-CXX/49/55.c'
source_filename = "source-C-CXX/49/55.c"
target datalayout = "e-m:e-p270:32:32-p271:32:32-p272:64:64-i64:64-f80:128-n8:16:32:64-S128"
target triple = "x86_64-pc-linux-gnu"

@.str = private unnamed_addr constant [3 x i8] c"%d\00", align 1
@.str.1 = private unnamed_addr constant [4 x i8] c"%d\0A\00", align 1

; Function Attrs: nofree nounwind sspstrong uwtable
define dso_local i32 @main() local_unnamed_addr #0 {
  %1 = alloca i32, align 4
  %2 = bitcast i32* %1 to i8*
  call void @llvm.lifetime.start.p0i8(i64 4, i8* nonnull %2) #3
  %3 = call i32 (i8*, ...) @__isoc99_scanf(i8* getelementptr inbounds ([3 x i8], [3 x i8]* @.str, i64 0, i64 0), i32* nonnull %1)
  %4 = load i32, i32* %1, align 4, !tbaa !5
  switch i32 %4, label %8 [
    i32 7, label %76
    i32 0, label %5
  ]

5:                                                ; preds = %0
  %6 = call i32 (i8*, ...) @printf(i8* nonnull dereferenceable(1) getelementptr inbounds ([4 x i8], [4 x i8]* @.str.1, i64 0, i64 0), i32 1)
  %7 = load i32, i32* %1, align 4, !tbaa !5
  br label %8

8:                                                ; preds = %0, %5
  %9 = phi i32 [ %7, %5 ], [ %4, %0 ]
  %10 = icmp eq i32 %9, 4
  br i1 %10, label %12, label %19

11:                                               ; preds = %76, %73
  call void @llvm.lifetime.end.p0i8(i64 4, i8* nonnull %2) #3
  ret i32 0

12:                                               ; preds = %8
  %13 = call i32 (i8*, ...) @printf(i8* nonnull dereferenceable(1) getelementptr inbounds ([4 x i8], [4 x i8]* @.str.1, i64 0, i64 0), i32 2)
  %14 = load i32, i32* %1, align 4, !tbaa !5
  %15 = icmp eq i32 %14, 4
  br i1 %15, label %16, label %19

16:                                               ; preds = %12
  %17 = call i32 (i8*, ...) @printf(i8* nonnull dereferenceable(1) getelementptr inbounds ([4 x i8], [4 x i8]* @.str.1, i64 0, i64 0), i32 3)
  %18 = load i32, i32* %1, align 4, !tbaa !5
  br label %19

19:                                               ; preds = %8, %16, %12
  %20 = phi i32 [ %18, %16 ], [ %14, %12 ], [ %9, %8 ]
  %21 = icmp eq i32 %20, 1
  br i1 %21, label %22, label %25

22:                                               ; preds = %19
  %23 = call i32 (i8*, ...) @printf(i8* nonnull dereferenceable(1) getelementptr inbounds ([4 x i8], [4 x i8]* @.str.1, i64 0, i64 0), i32 4)
  %24 = load i32, i32* %1, align 4, !tbaa !5
  br label %25

25:                                               ; preds = %22, %19
  %26 = phi i32 [ %24, %22 ], [ %20, %19 ]
  %27 = icmp eq i32 %26, 6
  br i1 %27, label %28, label %31

28:                                               ; preds = %25
  %29 = call i32 (i8*, ...) @printf(i8* nonnull dereferenceable(1) getelementptr inbounds ([4 x i8], [4 x i8]* @.str.1, i64 0, i64 0), i32 5)
  %30 = load i32, i32* %1, align 4, !tbaa !5
  br label %31

31:                                               ; preds = %28, %25
  %32 = phi i32 [ %30, %28 ], [ %26, %25 ]
  %33 = icmp eq i32 %32, 3
  br i1 %33, label %34, label %37

34:                                               ; preds = %31
  %35 = call i32 (i8*, ...) @printf(i8* nonnull dereferenceable(1) getelementptr inbounds ([4 x i8], [4 x i8]* @.str.1, i64 0, i64 0), i32 6)
  %36 = load i32, i32* %1, align 4, !tbaa !5
  br label %37

37:                                               ; preds = %34, %31
  %38 = phi i32 [ %36, %34 ], [ %32, %31 ]
  %39 = icmp eq i32 %38, 1
  br i1 %39, label %40, label %43

40:                                               ; preds = %37
  %41 = call i32 (i8*, ...) @printf(i8* nonnull dereferenceable(1) getelementptr inbounds ([4 x i8], [4 x i8]* @.str.1, i64 0, i64 0), i32 7)
  %42 = load i32, i32* %1, align 4, !tbaa !5
  br label %43

43:                                               ; preds = %40, %37
  %44 = phi i32 [ %42, %40 ], [ %38, %37 ]
  %45 = icmp eq i32 %44, 5
  br i1 %45, label %46, label %49

46:                                               ; preds = %43
  %47 = call i32 (i8*, ...) @printf(i8* nonnull dereferenceable(1) getelementptr inbounds ([4 x i8], [4 x i8]* @.str.1, i64 0, i64 0), i32 8)
  %48 = load i32, i32* %1, align 4, !tbaa !5
  br label %49

49:                                               ; preds = %46, %43
  %50 = phi i32 [ %48, %46 ], [ %44, %43 ]
  %51 = icmp eq i32 %50, 2
  br i1 %51, label %52, label %55

52:                                               ; preds = %49
  %53 = call i32 (i8*, ...) @printf(i8* nonnull dereferenceable(1) getelementptr inbounds ([4 x i8], [4 x i8]* @.str.1, i64 0, i64 0), i32 9)
  %54 = load i32, i32* %1, align 4, !tbaa !5
  br label %55

55:                                               ; preds = %52, %49
  %56 = phi i32 [ %54, %52 ], [ %50, %49 ]
  %57 = icmp eq i32 %56, 0
  br i1 %57, label %58, label %61

58:                                               ; preds = %55
  %59 = call i32 (i8*, ...) @printf(i8* nonnull dereferenceable(1) getelementptr inbounds ([4 x i8], [4 x i8]* @.str.1, i64 0, i64 0), i32 10)
  %60 = load i32, i32* %1, align 4, !tbaa !5
  br label %61

61:                                               ; preds = %58, %55
  %62 = phi i32 [ %60, %58 ], [ %56, %55 ]
  %63 = icmp eq i32 %62, 4
  br i1 %63, label %64, label %67

64:                                               ; preds = %61
  %65 = call i32 (i8*, ...) @printf(i8* nonnull dereferenceable(1) getelementptr inbounds ([4 x i8], [4 x i8]* @.str.1, i64 0, i64 0), i32 11)
  %66 = load i32, i32* %1, align 4, !tbaa !5
  br label %67

67:                                               ; preds = %64, %61
  %68 = phi i32 [ %66, %64 ], [ %62, %61 ]
  %69 = icmp eq i32 %68, 2
  br i1 %69, label %70, label %73

70:                                               ; preds = %67
  %71 = call i32 (i8*, ...) @printf(i8* nonnull dereferenceable(1) getelementptr inbounds ([4 x i8], [4 x i8]* @.str.1, i64 0, i64 0), i32 12)
  %72 = load i32, i32* %1, align 4, !tbaa !5
  br label %73

73:                                               ; preds = %70, %67
  %74 = phi i32 [ %72, %70 ], [ %68, %67 ]
  %75 = icmp eq i32 %74, 7
  br i1 %75, label %76, label %11

76:                                               ; preds = %0, %73
  %77 = call i32 (i8*, ...) @printf(i8* nonnull dereferenceable(1) getelementptr inbounds ([4 x i8], [4 x i8]* @.str.1, i64 0, i64 0), i32 1)
  %78 = call i32 (i8*, ...) @printf(i8* nonnull dereferenceable(1) getelementptr inbounds ([4 x i8], [4 x i8]* @.str.1, i64 0, i64 0), i32 10)
  br label %11
}

; Function Attrs: argmemonly mustprogress nofree nosync nounwind willreturn
declare void @llvm.lifetime.start.p0i8(i64 immarg, i8* nocapture) #1

; Function Attrs: nofree nounwind
declare noundef i32 @__isoc99_scanf(i8* nocapture noundef readonly, ...) local_unnamed_addr #2

; Function Attrs: nofree nounwind
declare noundef i32 @printf(i8* nocapture noundef readonly, ...) local_unnamed_addr #2

; Function Attrs: argmemonly mustprogress nofree nosync nounwind willreturn
declare void @llvm.lifetime.end.p0i8(i64 immarg, i8* nocapture) #1


!llvm.module.flags = !{!0, !1, !2, !3}
!llvm.ident = !{!4}

!0 = !{i32 1, !"wchar_size", i32 4}
!1 = !{i32 7, !"PIC Level", i32 2}
!2 = !{i32 7, !"PIE Level", i32 2}
!3 = !{i32 7, !"uwtable", i32 1}
!4 = !{!"clang version 13.0.0"}
!5 = !{!6, !6, i64 0}
!6 = !{!"int", !7, i64 0}
!7 = !{!"omnipotent char", !8, i64 0}
!8 = !{!"Simple C/C++ TBAA"}
